target datalayout = "e-m:e-p270:32:32-p271:32:32-p272:64:64-i64:64-i128:128-f80:128-n8:16:32:64-S128"
target triple = "x86_64-pc-linux-gnu"

; Function Attrs: nounwind uwtable
define hidden i64 @je_reg_size_compute(i32 noundef %0, i32 noundef %1, i32 noundef %2) #0 {
  %4 = alloca i32, align 4
  %5 = alloca i32, align 4
  %6 = alloca i32, align 4
  store i32 %0, ptr %4, align 4, !tbaa !4
  store i32 %1, ptr %5, align 4, !tbaa !4
  store i32 %2, ptr %6, align 4, !tbaa !4
  %7 = load i32, ptr %4, align 4, !tbaa !4
  %8 = zext i32 %7 to i64
  %9 = shl i64 1, %8
  %10 = load i32, ptr %6, align 4, !tbaa !4
  %11 = sext i32 %10 to i64
  %12 = load i32, ptr %5, align 4, !tbaa !4
  %13 = zext i32 %12 to i64
  %14 = shl i64 %11, %13
  %15 = add i64 %9, %14
  ret i64 %15
}